target datalayout = "e-m:e-p270:32:32-p271:32:32-p272:64:64-i64:64-i128:128-f80:128-n8:16:32:64-S128"
target triple = "x86_64-pc-linux-gnu"

%class.C_IStream = type { %"class.Imf_3_4::IStream", ptr }
%"class.Imf_3_4::IStream" = type { ptr, %"class.std::__cxx11::basic_string" }
%"class.std::__cxx11::basic_string" = type { %"struct.std::__cxx11::basic_string<char>::_Alloc_hider", i64, %union.anon }
%"struct.std::__cxx11::basic_string<char>::_Alloc_hider" = type { ptr }
%union.anon = type { i64, [8 x i8] }
%"class.Imf_3_4::RgbaInputFile" = type { ptr, ptr, ptr, ptr, %"class.std::__cxx11::basic_string" }
%"class.Imath_3_2::Box" = type { %"class.Imath_3_2::Vec2.3", %"class.Imath_3_2::Vec2.3" }
%"class.Imath_3_2::Vec2.3" = type { i32, i32 }
%"struct.Imf_3_4::Rgba" = type { %"class.Imath_3_2::half", %"class.Imath_3_2::half", %"class.Imath_3_2::half", %"class.Imath_3_2::half" }
%"class.Imath_3_2::half" = type { i16 }
%"class.Imf_3_4::Array2D" = type { i64, i64, ptr }

; Function Attrs: mustprogress nounwind uwtable
define linkonce_odr dso_local void @_ZN7Imf_3_44RgbaC2Ev(ptr noundef nonnull align 2 dereferenceable(8) %0) unnamed_addr #5 comdat align 2 {
  %2 = alloca ptr, align 8
  store ptr %0, ptr %2, align 8, !tbaa !27
  ret void
}

; Function Attrs: inlinehint mustprogress nounwind uwtable
define linkonce_odr dso_local void @_ZN9Imath_3_24Vec2IiEC2ERKS1_(ptr noundef nonnull align 4 dereferenceable(8) %0, ptr noundef nonnull align 4 dereferenceable(8) %1) unnamed_addr #7 comdat align 2 {
  %3 = alloca ptr, align 8
  %4 = alloca ptr, align 8
  store ptr %0, ptr %3, align 8, !tbaa !61
  store ptr %1, ptr %4, align 8, !tbaa !61
  %5 = load ptr, ptr %3, align 8
  %6 = getelementptr inbounds nuw %"class.Imath_3_2::Vec2.3", ptr %5, i32 0, i32 0
  %7 = load ptr, ptr %4, align 8, !tbaa !61
  %8 = getelementptr inbounds nuw %"class.Imath_3_2::Vec2.3", ptr %7, i32 0, i32 0
  %9 = load i32, ptr %8, align 4, !tbaa !63
  store i32 %9, ptr %6, align 4, !tbaa !63
  %10 = getelementptr inbounds nuw %"class.Imath_3_2::Vec2.3", ptr %5, i32 0, i32 1
  %11 = load ptr, ptr %4, align 8, !tbaa !61
  %12 = getelementptr inbounds nuw %"class.Imath_3_2::Vec2.3", ptr %11, i32 0, i32 1
  %13 = load i32, ptr %12, align 4, !tbaa !64
  store i32 %13, ptr %10, align 4, !tbaa !64
  ret void
}

; Function Attrs: inlinehint mustprogress nounwind uwtable
define linkonce_odr dso_local noundef ptr @_ZN7Imf_3_47Array2DINS_4RgbaEEixEl(ptr noundef nonnull align 8 dereferenceable(24) %0, i64 noundef %1) #7 comdat align 2 {
  %3 = alloca ptr, align 8
  %4 = alloca i64, align 8
  store ptr %0, ptr %3, align 8, !tbaa !38
  store i64 %1, ptr %4, align 8, !tbaa !20
  %5 = load ptr, ptr %3, align 8
  %6 = getelementptr inbounds nuw %"class.Imf_3_4::Array2D", ptr %5, i32 0, i32 2
  %7 = load ptr, ptr %6, align 8, !tbaa !50
  %8 = load i64, ptr %4, align 8, !tbaa !20
  %9 = getelementptr inbounds nuw %"class.Imf_3_4::Array2D", ptr %5, i32 0, i32 1
  %10 = load i64, ptr %9, align 8, !tbaa !53
  %11 = mul nsw i64 %8, %10
  %12 = getelementptr inbounds %"struct.Imf_3_4::Rgba", ptr %7, i64 %11
  ret ptr %12
}

; Function Attrs: inlinehint mustprogress uwtable
define linkonce_odr dso_local void @_ZN7Imf_3_47Array2DINS_4RgbaEE11resizeEraseEll(ptr noundef nonnull align 8 dereferenceable(24) %0, i64 noundef %1, i64 noundef %2) #8 comdat align 2 personality ptr @__gxx_personality_v0 {
  %4 = alloca ptr, align 8
  %5 = alloca i64, align 8
  %6 = alloca i64, align 8
  %7 = alloca ptr, align 8
  %8 = alloca ptr, align 8
  %9 = alloca i32, align 4
  store ptr %0, ptr %4, align 8, !tbaa !38
  store i64 %1, ptr %5, align 8, !tbaa !20
  store i64 %2, ptr %6, align 8, !tbaa !20
  %10 = load ptr, ptr %4, align 8
  call void @llvm.lifetime.start.p0(i64 8, ptr %7) #3
  %11 = load i64, ptr %5, align 8, !tbaa !20
  %12 = load i64, ptr %6, align 8, !tbaa !20
  %13 = mul nsw i64 %11, %12
  %14 = call { i64, i1 } @llvm.umul.with.overflow.i64(i64 %13, i64 8)
  %15 = extractvalue { i64, i1 } %14, 1
  %16 = extractvalue { i64, i1 } %14, 0
  %17 = select i1 %15, i64 -1, i64 %16
  %18 = call noalias noundef nonnull ptr @_Znam(i64 noundef %17) #16
  %19 = icmp eq i64 %13, 0
  br i1 %19, label %27, label %20

20:                                               ; preds = %3
  %21 = getelementptr inbounds %"struct.Imf_3_4::Rgba", ptr %18, i64 %13
  br label %22

22:                                               ; preds = %24, %20
  %23 = phi ptr [ %18, %20 ], [ %25, %24 ]
  invoke void @_ZN7Imf_3_44RgbaC2Ev(ptr noundef nonnull align 2 dereferenceable(8) %23)
          to label %24 unwind label %39

24:                                               ; preds = %22
  %25 = getelementptr inbounds %"struct.Imf_3_4::Rgba", ptr %23, i64 1
  %26 = icmp eq ptr %25, %21
  br i1 %26, label %27, label %22

27:                                               ; preds = %3, %24
  store ptr %18, ptr %7, align 8, !tbaa !27
  %28 = getelementptr inbounds nuw %"class.Imf_3_4::Array2D", ptr %10, i32 0, i32 2
  %29 = load ptr, ptr %28, align 8, !tbaa !50
  %30 = icmp eq ptr %29, null
  br i1 %30, label %32, label %31

31:                                               ; preds = %27
  call void @_ZdaPv(ptr noundef %29) #17
  br label %32

32:                                               ; preds = %31, %27
  %33 = load i64, ptr %5, align 8, !tbaa !20
  %34 = getelementptr inbounds nuw %"class.Imf_3_4::Array2D", ptr %10, i32 0, i32 0
  store i64 %33, ptr %34, align 8, !tbaa !52
  %35 = load i64, ptr %6, align 8, !tbaa !20
  %36 = getelementptr inbounds nuw %"class.Imf_3_4::Array2D", ptr %10, i32 0, i32 1
  store i64 %35, ptr %36, align 8, !tbaa !53
  %37 = load ptr, ptr %7, align 8, !tbaa !27
  %38 = getelementptr inbounds nuw %"class.Imf_3_4::Array2D", ptr %10, i32 0, i32 2
  store ptr %37, ptr %38, align 8, !tbaa !50
  call void @llvm.lifetime.end.p0(i64 8, ptr %7) #3
  ret void

39:                                               ; preds = %22
  %40 = landingpad { ptr, i32 }
          cleanup
  %41 = extractvalue { ptr, i32 } %40, 0
  store ptr %41, ptr %8, align 8
  %42 = extractvalue { ptr, i32 } %40, 1
  store i32 %42, ptr %9, align 4
  call void @_ZdaPvm(ptr noundef %18, i64 noundef %17) #17
  call void @llvm.lifetime.end.p0(i64 8, ptr %7) #3
  br label %43

43:                                               ; preds = %39
  %44 = load ptr, ptr %8, align 8
  %45 = load i32, ptr %9, align 4
  %46 = insertvalue { ptr, i32 } poison, ptr %44, 0
  %47 = insertvalue { ptr, i32 } %46, i32 %45, 1
  resume { ptr, i32 } %47
}

; Function Attrs: inlinehint mustprogress nounwind uwtable
define linkonce_odr dso_local void @_ZN9Imath_3_23BoxINS_4Vec2IiEEEC2ERKS3_(ptr noundef nonnull align 4 dereferenceable(16) %0, ptr noundef nonnull align 4 dereferenceable(16) %1) unnamed_addr #7 comdat align 2 {
  %3 = alloca ptr, align 8
  %4 = alloca ptr, align 8
  store ptr %0, ptr %3, align 8, !tbaa !48
  store ptr %1, ptr %4, align 8, !tbaa !48
  %5 = load ptr, ptr %3, align 8
  %6 = getelementptr inbounds nuw %"class.Imath_3_2::Box", ptr %5, i32 0, i32 0
  %7 = load ptr, ptr %4, align 8, !tbaa !48
  %8 = getelementptr inbounds nuw %"class.Imath_3_2::Box", ptr %7, i32 0, i32 0
  call void @_ZN9Imath_3_24Vec2IiEC2ERKS1_(ptr noundef nonnull align 4 dereferenceable(8) %6, ptr noundef nonnull align 4 dereferenceable(8) %8) #3
  %9 = getelementptr inbounds nuw %"class.Imath_3_2::Box", ptr %5, i32 0, i32 1
  %10 = load ptr, ptr %4, align 8, !tbaa !48
  %11 = getelementptr inbounds nuw %"class.Imath_3_2::Box", ptr %10, i32 0, i32 1
  call void @_ZN9Imath_3_24Vec2IiEC2ERKS1_(ptr noundef nonnull align 4 dereferenceable(8) %9, ptr noundef nonnull align 4 dereferenceable(8) %11) #3
  ret void
}

; Function Attrs: mustprogress uwtable
define linkonce_odr dso_local void @_ZN9C_IStreamC2EP8_IO_FILEPKc(ptr noundef nonnull align 8 dereferenceable(48) %0, ptr noundef %1, ptr noundef %2) unnamed_addr #4 comdat align 2 {
  %4 = alloca ptr, align 8
  %5 = alloca ptr, align 8
  %6 = alloca ptr, align 8
  store ptr %0, ptr %4, align 8, !tbaa !4
  store ptr %1, ptr %5, align 8, !tbaa !26
  store ptr %2, ptr %6, align 8, !tbaa !9
  %7 = load ptr, ptr %4, align 8
  %8 = load ptr, ptr %6, align 8, !tbaa !9
  call void @_ZN7Imf_3_47IStreamC2EPKc(ptr noundef nonnull align 8 dereferenceable(40) %7, ptr noundef %8)
  store ptr getelementptr inbounds inrange(-16, 88) ({ [13 x ptr] }, ptr @_ZTV9C_IStream, i32 0, i32 0, i32 2), ptr %7, align 8, !tbaa !29
  %9 = getelementptr inbounds nuw %class.C_IStream, ptr %7, i32 0, i32 1
  %10 = load ptr, ptr %5, align 8, !tbaa !26
  store ptr %10, ptr %9, align 8, !tbaa !13
  ret void
}

; Function Attrs: mustprogress uwtable
define dso_local void @_Z12readRgbaFILEP8_IO_FILEPKcRN7Imf_3_47Array2DINS3_4RgbaEEERiS8_(ptr noundef %0, ptr noundef %1, ptr noundef nonnull align 8 dereferenceable(24) %2, ptr noundef nonnull align 4 dereferenceable(4) %3, ptr noundef nonnull align 4 dereferenceable(4) %4) #4 personality ptr @__gxx_personality_v0 {
  %6 = alloca ptr, align 8
  %7 = alloca ptr, align 8
  %8 = alloca ptr, align 8
  %9 = alloca ptr, align 8
  %10 = alloca ptr, align 8
  %11 = alloca %class.C_IStream, align 8
  %12 = alloca %"class.Imf_3_4::RgbaInputFile", align 8
  %13 = alloca ptr, align 8
  %14 = alloca i32, align 4
  %15 = alloca %"class.Imath_3_2::Box", align 4
  store ptr %0, ptr %6, align 8, !tbaa !26
  store ptr %1, ptr %7, align 8, !tbaa !9
  store ptr %2, ptr %8, align 8, !tbaa !38
  store ptr %3, ptr %9, align 8, !tbaa !40
  store ptr %4, ptr %10, align 8, !tbaa !40
  call void @llvm.lifetime.start.p0(i64 48, ptr %11) #3
  %16 = load ptr, ptr %6, align 8, !tbaa !26
  %17 = load ptr, ptr %7, align 8, !tbaa !9
  call void @_ZN9C_IStreamC2EP8_IO_FILEPKc(ptr noundef nonnull align 8 dereferenceable(48) %11, ptr noundef %16, ptr noundef %17)
  call void @llvm.lifetime.start.p0(i64 64, ptr %12) #3
  %18 = invoke noundef i32 @_ZN7Imf_3_417globalThreadCountEv()
          to label %19 unwind label %79

19:                                               ; preds = %5
  invoke void @_ZN7Imf_3_413RgbaInputFileC1ERNS_7IStreamEi(ptr noundef nonnull align 8 dereferenceable(64) %12, ptr noundef nonnull align 8 dereferenceable(40) %11, i32 noundef %18)
          to label %20 unwind label %79

20:                                               ; preds = %19
  call void @llvm.lifetime.start.p0(i64 16, ptr %15) #3
  %21 = invoke noundef nonnull align 4 dereferenceable(16) ptr @_ZNK7Imf_3_413RgbaInputFile10dataWindowEv(ptr noundef nonnull align 8 dereferenceable(64) %12)
          to label %22 unwind label %83

22:                                               ; preds = %20
  call void @_ZN9Imath_3_23BoxINS_4Vec2IiEEEC2ERKS3_(ptr noundef nonnull align 4 dereferenceable(16) %15, ptr noundef nonnull align 4 dereferenceable(16) %21) #3
  %23 = getelementptr inbounds nuw %"class.Imath_3_2::Box", ptr %15, i32 0, i32 1
  %24 = getelementptr inbounds nuw %"class.Imath_3_2::Vec2.3", ptr %23, i32 0, i32 0
  %25 = load i32, ptr %24, align 4, !tbaa !42
  %26 = getelementptr inbounds nuw %"class.Imath_3_2::Box", ptr %15, i32 0, i32 0
  %27 = getelementptr inbounds nuw %"class.Imath_3_2::Vec2.3", ptr %26, i32 0, i32 0
  %28 = load i32, ptr %27, align 4, !tbaa !45
  %29 = sub nsw i32 %25, %28
  %30 = add nsw i32 %29, 1
  %31 = load ptr, ptr %9, align 8, !tbaa !40
  store i32 %30, ptr %31, align 4, !tbaa !11
  %32 = getelementptr inbounds nuw %"class.Imath_3_2::Box", ptr %15, i32 0, i32 1
  %33 = getelementptr inbounds nuw %"class.Imath_3_2::Vec2.3", ptr %32, i32 0, i32 1
  %34 = load i32, ptr %33, align 4, !tbaa !46
  %35 = getelementptr inbounds nuw %"class.Imath_3_2::Box", ptr %15, i32 0, i32 0
  %36 = getelementptr inbounds nuw %"class.Imath_3_2::Vec2.3", ptr %35, i32 0, i32 1
  %37 = load i32, ptr %36, align 4, !tbaa !47
  %38 = sub nsw i32 %34, %37
  %39 = add nsw i32 %38, 1
  %40 = load ptr, ptr %10, align 8, !tbaa !40
  store i32 %39, ptr %40, align 4, !tbaa !11
  %41 = load ptr, ptr %8, align 8, !tbaa !38
  %42 = load ptr, ptr %10, align 8, !tbaa !40
  %43 = load i32, ptr %42, align 4, !tbaa !11
  %44 = sext i32 %43 to i64
  %45 = load ptr, ptr %9, align 8, !tbaa !40
  %46 = load i32, ptr %45, align 4, !tbaa !11
  %47 = sext i32 %46 to i64
  invoke void @_ZN7Imf_3_47Array2DINS_4RgbaEE11resizeEraseEll(ptr noundef nonnull align 8 dereferenceable(24) %41, i64 noundef %44, i64 noundef %47)
          to label %48 unwind label %83

48:                                               ; preds = %22
  %49 = load ptr, ptr %8, align 8, !tbaa !38
  %50 = invoke noundef ptr @_ZN7Imf_3_47Array2DINS_4RgbaEEixEl(ptr noundef nonnull align 8 dereferenceable(24) %49, i64 noundef 0)
          to label %51 unwind label %83

51:                                               ; preds = %48
  %52 = getelementptr inbounds %"struct.Imf_3_4::Rgba", ptr %50, i64 0
  %53 = getelementptr inbounds nuw %"class.Imath_3_2::Box", ptr %15, i32 0, i32 0
  %54 = getelementptr inbounds nuw %"class.Imath_3_2::Vec2.3", ptr %53, i32 0, i32 0
  %55 = load i32, ptr %54, align 4, !tbaa !45
  %56 = sext i32 %55 to i64
  %57 = sub i64 0, %56
  %58 = getelementptr inbounds %"struct.Imf_3_4::Rgba", ptr %52, i64 %57
  %59 = getelementptr inbounds nuw %"class.Imath_3_2::Box", ptr %15, i32 0, i32 0
  %60 = getelementptr inbounds nuw %"class.Imath_3_2::Vec2.3", ptr %59, i32 0, i32 1
  %61 = load i32, ptr %60, align 4, !tbaa !47
  %62 = load ptr, ptr %9, align 8, !tbaa !40
  %63 = load i32, ptr %62, align 4, !tbaa !11
  %64 = mul nsw i32 %61, %63
  %65 = sext i32 %64 to i64
  %66 = sub i64 0, %65
  %67 = getelementptr inbounds %"struct.Imf_3_4::Rgba", ptr %58, i64 %66
  %68 = load ptr, ptr %9, align 8, !tbaa !40
  %69 = load i32, ptr %68, align 4, !tbaa !11
  %70 = sext i32 %69 to i64
  invoke void @_ZN7Imf_3_413RgbaInputFile14setFrameBufferEPNS_4RgbaEmm(ptr noundef nonnull align 8 dereferenceable(64) %12, ptr noundef %67, i64 noundef 1, i64 noundef %70)
          to label %71 unwind label %83

71:                                               ; preds = %51
  %72 = getelementptr inbounds nuw %"class.Imath_3_2::Box", ptr %15, i32 0, i32 0
  %73 = getelementptr inbounds nuw %"class.Imath_3_2::Vec2.3", ptr %72, i32 0, i32 1
  %74 = load i32, ptr %73, align 4, !tbaa !47
  %75 = getelementptr inbounds nuw %"class.Imath_3_2::Box", ptr %15, i32 0, i32 1
  %76 = getelementptr inbounds nuw %"class.Imath_3_2::Vec2.3", ptr %75, i32 0, i32 1
  %77 = load i32, ptr %76, align 4, !tbaa !46
  invoke void @_ZN7Imf_3_413RgbaInputFile10readPixelsEii(ptr noundef nonnull align 8 dereferenceable(64) %12, i32 noundef %74, i32 noundef %77)
          to label %78 unwind label %83

78:                                               ; preds = %71
  call void @llvm.lifetime.end.p0(i64 16, ptr %15) #3
  call void @_ZN7Imf_3_413RgbaInputFileD1Ev(ptr noundef nonnull align 8 dereferenceable(64) %12) #3
  call void @llvm.lifetime.end.p0(i64 64, ptr %12) #3
  call void @_ZN7Imf_3_47IStreamD2Ev(ptr noundef nonnull align 8 dereferenceable(48) %11) #3
  call void @llvm.lifetime.end.p0(i64 48, ptr %11) #3
  ret void

79:                                               ; preds = %19, %5
  %80 = landingpad { ptr, i32 }
          cleanup
  %81 = extractvalue { ptr, i32 } %80, 0
  store ptr %81, ptr %13, align 8
  %82 = extractvalue { ptr, i32 } %80, 1
  store i32 %82, ptr %14, align 4
  br label %87

83:                                               ; preds = %71, %51, %48, %22, %20
  %84 = landingpad { ptr, i32 }
          cleanup
  %85 = extractvalue { ptr, i32 } %84, 0
  store ptr %85, ptr %13, align 8
  %86 = extractvalue { ptr, i32 } %84, 1
  store i32 %86, ptr %14, align 4
  call void @llvm.lifetime.end.p0(i64 16, ptr %15) #3
  call void @_ZN7Imf_3_413RgbaInputFileD1Ev(ptr noundef nonnull align 8 dereferenceable(64) %12) #3
  br label %87

87:                                               ; preds = %83, %79
  call void @llvm.lifetime.end.p0(i64 64, ptr %12) #3
  call void @_ZN7Imf_3_47IStreamD2Ev(ptr noundef nonnull align 8 dereferenceable(48) %11) #3
  call void @llvm.lifetime.end.p0(i64 48, ptr %11) #3
  br label %88

88:                                               ; preds = %87
  %89 = load ptr, ptr %13, align 8
  %90 = load i32, ptr %14, align 4
  %91 = insertvalue { ptr, i32 } poison, ptr %89, 0
  %92 = insertvalue { ptr, i32 } %91, i32 %90, 1
  resume { ptr, i32 } %92
}